; Function Attrs: mustprogress uwtable
define noundef i32 @_ZNK10open_spiel10backgammon15BackgammonState14CheckersInHomeEi(ptr nocapture noundef nonnull readonly align 8 dereferenceable(216) %0, i32 noundef %1) local_unnamed_addr #4 align 2 {
  %3 = icmp eq i32 %1, 0
  br i1 %3, label %.split.us, label %.split

.split.us:                                        ; preds = %2, %.split.us
  %.010.us = phi i32 [ %7, %.split.us ], [ 0, %2 ]
  %.089.us = phi i32 [ %6, %.split.us ], [ 0, %2 ]
  %4 = sub nuw nsw i32 23, %.010.us
  %5 = tail call noundef i32 @_ZNK10open_spiel10backgammon15BackgammonState5boardEii(ptr noundef nonnull align 8 dereferenceable(216) %0, i32 noundef 0, i32 noundef %4)
  %6 = add nsw i32 %5, %.089.us
  %7 = add nuw nsw i32 %.010.us, 1
  %exitcond15.not = icmp eq i32 %7, 6
  br i1 %exitcond15.not, label %.split12.us, label %.split.us, !llvm.loop !30

.split:                                           ; preds = %2, %.split
  %.010 = phi i32 [ %10, %.split ], [ 0, %2 ]
  %.089 = phi i32 [ %9, %.split ], [ 0, %2 ]
  %8 = tail call noundef i32 @_ZNK10open_spiel10backgammon15BackgammonState5boardEii(ptr noundef nonnull align 8 dereferenceable(216) %0, i32 noundef %1, i32 noundef %.010)
  %9 = add nsw i32 %8, %.089
  %10 = add nuw nsw i32 %.010, 1
  %exitcond.not = icmp eq i32 %10, 6
  br i1 %exitcond.not, label %.split12.us, label %.split, !llvm.loop !30

.split12.us:                                      ; preds = %.split, %.split.us
  %.us-phi = phi i32 [ %6, %.split.us ], [ %9, %.split ]
  ret i32 %.us-phi
}